target datalayout = "e-m:e-p270:32:32-p271:32:32-p272:64:64-i64:64-i128:128-f80:128-n8:16:32:64-S128"
target triple = "x86_64-pc-linux-gnu"

%struct.lxb_encoding_decode_t = type { ptr, ptr, i64, i64, ptr, i64, i32, i32, i8, i8, i32, %union.anon }
%union.anon = type { %struct.lxb_encoding_ctx_2022_jp_t }
%struct.lxb_encoding_ctx_2022_jp_t = type { i8, i8, i32, i32, i8 }

; Function Attrs: inlinehint nounwind uwtable
define internal i32 @lxb_encoding_decode_utf_16_single(ptr noundef %0, i1 noundef zeroext %1, ptr noundef %2, ptr noundef %3) #3 {
  %5 = alloca i32, align 4
  %6 = alloca ptr, align 8
  %7 = alloca i8, align 1
  %8 = alloca ptr, align 8
  %9 = alloca ptr, align 8
  %10 = alloca i32, align 4
  %11 = alloca i32, align 4
  %12 = alloca i32, align 4
  store ptr %0, ptr %6, align 8, !tbaa !4
  %13 = zext i1 %1 to i8
  store i8 %13, ptr %7, align 1, !tbaa !33
  store ptr %2, ptr %8, align 8, !tbaa !8
  store ptr %3, ptr %9, align 8, !tbaa !10
  call void @llvm.lifetime.start.p0(i64 4, ptr %10) #5
  call void @llvm.lifetime.start.p0(i64 4, ptr %11) #5
  %14 = load ptr, ptr %6, align 8, !tbaa !4
  %15 = getelementptr inbounds nuw %struct.lxb_encoding_decode_t, ptr %14, i32 0, i32 11
  %16 = load i32, ptr %15, align 8, !tbaa !27
  %17 = icmp ne i32 %16, 0
  br i1 %17, label %18, label %25

18:                                               ; preds = %4
  %19 = load ptr, ptr %6, align 8, !tbaa !4
  %20 = getelementptr inbounds nuw %struct.lxb_encoding_decode_t, ptr %19, i32 0, i32 11
  %21 = load i32, ptr %20, align 8, !tbaa !27
  %22 = sub i32 %21, 1
  store i32 %22, ptr %10, align 4, !tbaa !28
  %23 = load ptr, ptr %6, align 8, !tbaa !4
  %24 = getelementptr inbounds nuw %struct.lxb_encoding_decode_t, ptr %23, i32 0, i32 11
  store i32 0, ptr %24, align 8, !tbaa !27
  br label %42

25:                                               ; preds = %4
  br label %26

26:                                               ; preds = %117, %25
  %27 = load ptr, ptr %8, align 8, !tbaa !8
  %28 = load ptr, ptr %27, align 8, !tbaa !10
  %29 = getelementptr inbounds nuw i8, ptr %28, i32 1
  store ptr %29, ptr %27, align 8, !tbaa !10
  %30 = load i8, ptr %28, align 1, !tbaa !27
  %31 = zext i8 %30 to i32
  store i32 %31, ptr %10, align 4, !tbaa !28
  %32 = load ptr, ptr %8, align 8, !tbaa !8
  %33 = load ptr, ptr %32, align 8, !tbaa !10
  %34 = load ptr, ptr %9, align 8, !tbaa !10
  %35 = icmp uge ptr %33, %34
  br i1 %35, label %36, label %41

36:                                               ; preds = %26
  %37 = load i32, ptr %10, align 4, !tbaa !28
  %38 = add i32 %37, 1
  %39 = load ptr, ptr %6, align 8, !tbaa !4
  %40 = getelementptr inbounds nuw %struct.lxb_encoding_decode_t, ptr %39, i32 0, i32 11
  store i32 %38, ptr %40, align 8, !tbaa !27
  store i32 3145727, ptr %5, align 4
  store i32 1, ptr %12, align 4
  br label %120

41:                                               ; preds = %26
  br label %42

42:                                               ; preds = %41, %18
  %43 = load i8, ptr %7, align 1, !tbaa !33, !range !20, !noundef !21
  %44 = trunc i8 %43 to i1
  br i1 %44, label %45, label %54

45:                                               ; preds = %42
  %46 = load i32, ptr %10, align 4, !tbaa !28
  %47 = shl i32 %46, 8
  %48 = load ptr, ptr %8, align 8, !tbaa !8
  %49 = load ptr, ptr %48, align 8, !tbaa !10
  %50 = getelementptr inbounds nuw i8, ptr %49, i32 1
  store ptr %50, ptr %48, align 8, !tbaa !10
  %51 = load i8, ptr %49, align 1, !tbaa !27
  %52 = zext i8 %51 to i32
  %53 = add i32 %47, %52
  store i32 %53, ptr %11, align 4, !tbaa !28
  br label %63

54:                                               ; preds = %42
  %55 = load ptr, ptr %8, align 8, !tbaa !8
  %56 = load ptr, ptr %55, align 8, !tbaa !10
  %57 = getelementptr inbounds nuw i8, ptr %56, i32 1
  store ptr %57, ptr %55, align 8, !tbaa !10
  %58 = load i8, ptr %56, align 1, !tbaa !27
  %59 = zext i8 %58 to i32
  %60 = shl i32 %59, 8
  %61 = load i32, ptr %10, align 4, !tbaa !28
  %62 = add i32 %60, %61
  store i32 %62, ptr %11, align 4, !tbaa !28
  br label %63

63:                                               ; preds = %54, %45
  %64 = load ptr, ptr %6, align 8, !tbaa !4
  %65 = getelementptr inbounds nuw %struct.lxb_encoding_decode_t, ptr %64, i32 0, i32 7
  %66 = load i32, ptr %65, align 4, !tbaa !30
  %67 = icmp ne i32 %66, 0
  br i1 %67, label %68, label %99

68:                                               ; preds = %63
  %69 = load i32, ptr %11, align 4, !tbaa !28
  %70 = sub i32 %69, 56320
  %71 = icmp ule i32 %70, 1023
  br i1 %71, label %72, label %89

72:                                               ; preds = %68
  %73 = load ptr, ptr %6, align 8, !tbaa !4
  %74 = getelementptr inbounds nuw %struct.lxb_encoding_decode_t, ptr %73, i32 0, i32 7
  %75 = load i32, ptr %74, align 4, !tbaa !30
  %76 = sub i32 %75, 55296
  %77 = shl i32 %76, 10
  %78 = add i32 65536, %77
  %79 = load i32, ptr %11, align 4, !tbaa !28
  %80 = sub i32 %79, 56320
  %81 = add i32 %78, %80
  %82 = load ptr, ptr %6, align 8, !tbaa !4
  %83 = getelementptr inbounds nuw %struct.lxb_encoding_decode_t, ptr %82, i32 0, i32 6
  store i32 %81, ptr %83, align 8, !tbaa !29
  %84 = load ptr, ptr %6, align 8, !tbaa !4
  %85 = getelementptr inbounds nuw %struct.lxb_encoding_decode_t, ptr %84, i32 0, i32 7
  store i32 0, ptr %85, align 4, !tbaa !30
  %86 = load ptr, ptr %6, align 8, !tbaa !4
  %87 = getelementptr inbounds nuw %struct.lxb_encoding_decode_t, ptr %86, i32 0, i32 6
  %88 = load i32, ptr %87, align 8, !tbaa !29
  store i32 %88, ptr %5, align 4
  store i32 1, ptr %12, align 4
  br label %120

89:                                               ; preds = %68
  %90 = load ptr, ptr %8, align 8, !tbaa !8
  %91 = load ptr, ptr %90, align 8, !tbaa !10
  %92 = getelementptr inbounds i8, ptr %91, i32 -1
  store ptr %92, ptr %90, align 8, !tbaa !10
  %93 = load i32, ptr %10, align 4, !tbaa !28
  %94 = add i32 %93, 1
  %95 = load ptr, ptr %6, align 8, !tbaa !4
  %96 = getelementptr inbounds nuw %struct.lxb_encoding_decode_t, ptr %95, i32 0, i32 11
  store i32 %94, ptr %96, align 8, !tbaa !27
  %97 = load ptr, ptr %6, align 8, !tbaa !4
  %98 = getelementptr inbounds nuw %struct.lxb_encoding_decode_t, ptr %97, i32 0, i32 7
  store i32 0, ptr %98, align 4, !tbaa !30
  store i32 2097151, ptr %5, align 4
  store i32 1, ptr %12, align 4
  br label %120

99:                                               ; preds = %63
  %100 = load i32, ptr %11, align 4, !tbaa !28
  %101 = sub i32 %100, 55296
  %102 = icmp ule i32 %101, 2047
  br i1 %102, label %103, label %118

103:                                              ; preds = %99
  %104 = load i32, ptr %11, align 4, !tbaa !28
  %105 = sub i32 %104, 56320
  %106 = icmp ule i32 %105, 1023
  br i1 %106, label %107, label %108

107:                                              ; preds = %103
  store i32 2097151, ptr %5, align 4
  store i32 1, ptr %12, align 4
  br label %120

108:                                              ; preds = %103
  %109 = load i32, ptr %11, align 4, !tbaa !28
  %110 = load ptr, ptr %6, align 8, !tbaa !4
  %111 = getelementptr inbounds nuw %struct.lxb_encoding_decode_t, ptr %110, i32 0, i32 7
  store i32 %109, ptr %111, align 4, !tbaa !30
  %112 = load ptr, ptr %8, align 8, !tbaa !8
  %113 = load ptr, ptr %112, align 8, !tbaa !10
  %114 = load ptr, ptr %9, align 8, !tbaa !10
  %115 = icmp uge ptr %113, %114
  br i1 %115, label %116, label %117

116:                                              ; preds = %108
  store i32 3145727, ptr %5, align 4
  store i32 1, ptr %12, align 4
  br label %120

117:                                              ; preds = %108
  br label %26

118:                                              ; preds = %99
  %119 = load i32, ptr %11, align 4, !tbaa !28
  store i32 %119, ptr %5, align 4
  store i32 1, ptr %12, align 4
  br label %120

120:                                              ; preds = %118, %116, %107, %89, %72, %36
  call void @llvm.lifetime.end.p0(i64 4, ptr %11) #5
  call void @llvm.lifetime.end.p0(i64 4, ptr %10) #5
  %121 = load i32, ptr %5, align 4
  ret i32 %121
}

; Function Attrs: nounwind uwtable
define hidden i32 @lxb_encoding_decode_utf_16le_single(ptr noundef %0, ptr noundef %1, ptr noundef %2) #0 {
  %4 = alloca ptr, align 8
  %5 = alloca ptr, align 8
  %6 = alloca ptr, align 8
  store ptr %0, ptr %4, align 8, !tbaa !4
  store ptr %1, ptr %5, align 8, !tbaa !8
  store ptr %2, ptr %6, align 8, !tbaa !10
  %7 = load ptr, ptr %4, align 8, !tbaa !4
  %8 = load ptr, ptr %5, align 8, !tbaa !8
  %9 = load ptr, ptr %6, align 8, !tbaa !10
  %10 = call i32 @lxb_encoding_decode_utf_16_single(ptr noundef %7, i1 noundef zeroext false, ptr noundef %8, ptr noundef %9)
  ret i32 %10
}